; Function Attrs: mustprogress nounwind uwtable
define dso_local noundef ptr @_ZN5clang11DeclContext28getEnclosingNamespaceContextEv(ptr noundef nonnull align 8 dereferenceable(32) %0) local_unnamed_addr #0 align 2 {
  br label %_ZN5clang11DeclContext9getParentEv.exit

_ZN5clang11DeclContext9getParentEv.exit:          ; preds = %_ZN5clang11DeclContext9getParentEv.exit.backedge, %1
  %.0 = phi ptr [ %0, %1 ], [ %.0.be, %_ZN5clang11DeclContext9getParentEv.exit.backedge ]
  %2 = getelementptr inbounds nuw i8, ptr %.0, i64 8
  %3 = load i16, ptr %2, align 8
  %4 = and i16 %3, 127
  switch i16 %4, label %5 [
    i16 21, label %14
    i16 0, label %14
  ]

5:                                                ; preds = %_ZN5clang11DeclContext9getParentEv.exit
  %6 = tail call noundef ptr @_ZN5clang4Decl19castFromDeclContextEPKNS_11DeclContextE(ptr noundef nonnull %.0)
  %7 = getelementptr inbounds nuw i8, ptr %6, i64 16
  %.0.copyload.i.i.i.i.i.i.i.i.i.i.i = load i64, ptr %7, align 8
  %8 = and i64 %.0.copyload.i.i.i.i.i.i.i.i.i.i.i, 4
  %9 = icmp eq i64 %8, 0
  %10 = and i64 %.0.copyload.i.i.i.i.i.i.i.i.i.i.i, -8
  %11 = inttoptr i64 %10 to ptr
  br i1 %9, label %_ZN5clang11DeclContext9getParentEv.exit.backedge, label %12

_ZN5clang11DeclContext9getParentEv.exit.backedge: ; preds = %5, %12
  %.0.be = phi ptr [ %13, %12 ], [ %11, %5 ]
  br label %_ZN5clang11DeclContext9getParentEv.exit, !llvm.loop !62

12:                                               ; preds = %5
  %13 = load ptr, ptr %11, align 8
  br label %_ZN5clang11DeclContext9getParentEv.exit.backedge

14:                                               ; preds = %_ZN5clang11DeclContext9getParentEv.exit, %_ZN5clang11DeclContext9getParentEv.exit
  %15 = tail call noundef ptr @_ZN5clang11DeclContext17getPrimaryContextEv(ptr noundef nonnull align 8 dereferenceable(32) %.0)
  ret ptr %15
}